target datalayout = "e-m:e-p270:32:32-p271:32:32-p272:64:64-i64:64-i128:128-f80:128-n8:16:32:64-S128"
target triple = "x86_64-pc-linux-gnu"

%struct.ge_p3 = type { [10 x i32], [10 x i32], [10 x i32], [10 x i32] }
%struct.ge_p2 = type { [10 x i32], [10 x i32], [10 x i32] }

@.str = private unnamed_addr constant [7 x i8] c"SHA512\00", align 1
@__const.ossl_ed25519_verify.l_low = private unnamed_addr constant [16 x i8] c"\ED\D3\F5\\\1Ac\12X\D6\9C\F7\A2\DE\F9\DE\14", align 16
@allzeroes = internal constant [15 x i8] zeroinitializer, align 1

; Function Attrs: nounwind uwtable
define internal void @fe_neg(ptr noundef %0, ptr noundef %1) #0 {
  %3 = alloca ptr, align 8
  %4 = alloca ptr, align 8
  %5 = alloca i32, align 4
  store ptr %0, ptr %3, align 8, !tbaa !26
  store ptr %1, ptr %4, align 8, !tbaa !26
  call void @llvm.lifetime.start.p0(i64 4, ptr %5) #6
  store i32 0, ptr %5, align 4, !tbaa !17
  br label %6

6:                                                ; preds = %20, %2
  %7 = load i32, ptr %5, align 4, !tbaa !17
  %8 = icmp ult i32 %7, 10
  br i1 %8, label %9, label %23

9:                                                ; preds = %6
  %10 = load ptr, ptr %4, align 8, !tbaa !26
  %11 = load i32, ptr %5, align 4, !tbaa !17
  %12 = zext i32 %11 to i64
  %13 = getelementptr inbounds nuw i32, ptr %10, i64 %12
  %14 = load i32, ptr %13, align 4, !tbaa !17
  %15 = sub nsw i32 0, %14
  %16 = load ptr, ptr %3, align 8, !tbaa !26
  %17 = load i32, ptr %5, align 4, !tbaa !17
  %18 = zext i32 %17 to i64
  %19 = getelementptr inbounds nuw i32, ptr %16, i64 %18
  store i32 %15, ptr %19, align 4, !tbaa !17
  br label %20

20:                                               ; preds = %9
  %21 = load i32, ptr %5, align 4, !tbaa !17
  %22 = add i32 %21, 1
  store i32 %22, ptr %5, align 4, !tbaa !17
  br label %6, !llvm.loop !28

23:                                               ; preds = %6
  call void @llvm.lifetime.end.p0(i64 4, ptr %5) #6
  ret void
}

; Function Attrs: nounwind uwtable
define i32 @ossl_ed25519_verify(ptr noundef %0, i64 noundef %1, ptr noundef %2, ptr noundef %3, i8 noundef zeroext %4, i8 noundef zeroext %5, i8 noundef zeroext %6, ptr noundef %7, i64 noundef %8, ptr noundef %9, ptr noundef %10) #0 {
  %12 = alloca i32, align 4
  %13 = alloca ptr, align 8
  %14 = alloca i64, align 8
  %15 = alloca ptr, align 8
  %16 = alloca ptr, align 8
  %17 = alloca i8, align 1
  %18 = alloca i8, align 1
  %19 = alloca i8, align 1
  %20 = alloca ptr, align 8
  %21 = alloca i64, align 8
  %22 = alloca ptr, align 8
  %23 = alloca ptr, align 8
  %24 = alloca i32, align 4
  %25 = alloca %struct.ge_p3, align 4
  %26 = alloca ptr, align 8
  %27 = alloca ptr, align 8
  %28 = alloca ptr, align 8
  %29 = alloca ptr, align 8
  %30 = alloca i32, align 4
  %31 = alloca i32, align 4
  %32 = alloca %struct.ge_p2, align 4
  %33 = alloca [32 x i8], align 16
  %34 = alloca [64 x i8], align 16
  %35 = alloca [16 x i8], align 16
  %36 = alloca i32, align 4
  store ptr %0, ptr %13, align 8, !tbaa !3
  store i64 %1, ptr %14, align 8, !tbaa !8
  store ptr %2, ptr %15, align 8, !tbaa !3
  store ptr %3, ptr %16, align 8, !tbaa !3
  store i8 %4, ptr %17, align 1, !tbaa !10
  store i8 %5, ptr %18, align 1, !tbaa !10
  store i8 %6, ptr %19, align 1, !tbaa !10
  store ptr %7, ptr %20, align 8, !tbaa !3
  store i64 %8, ptr %21, align 8, !tbaa !8
  store ptr %9, ptr %22, align 8, !tbaa !11
  store ptr %10, ptr %23, align 8, !tbaa !3
  call void @llvm.lifetime.start.p0(i64 4, ptr %24) #6
  call void @llvm.lifetime.start.p0(i64 160, ptr %25) #6
  call void @llvm.lifetime.start.p0(i64 8, ptr %26) #6
  call void @llvm.lifetime.start.p0(i64 8, ptr %27) #6
  call void @llvm.lifetime.start.p0(i64 8, ptr %28) #6
  call void @llvm.lifetime.start.p0(i64 8, ptr %29) #6
  store ptr null, ptr %29, align 8, !tbaa !15
  call void @llvm.lifetime.start.p0(i64 4, ptr %30) #6
  call void @llvm.lifetime.start.p0(i64 4, ptr %31) #6
  store i32 0, ptr %31, align 4, !tbaa !17
  call void @llvm.lifetime.start.p0(i64 120, ptr %32) #6
  call void @llvm.lifetime.start.p0(i64 32, ptr %33) #6
  call void @llvm.lifetime.start.p0(i64 64, ptr %34) #6
  call void @llvm.lifetime.start.p0(i64 16, ptr %35) #6
  call void @llvm.memcpy.p0.p0.i64(ptr align 16 %35, ptr align 16 @__const.ossl_ed25519_verify.l_low, i64 16, i1 false)
  %37 = load ptr, ptr %20, align 8, !tbaa !3
  %38 = icmp eq ptr %37, null
  br i1 %38, label %39, label %40

39:                                               ; preds = %11
  store i64 0, ptr %21, align 8, !tbaa !8
  br label %40

40:                                               ; preds = %39, %11
  %41 = load i8, ptr %19, align 1, !tbaa !10
  %42 = zext i8 %41 to i32
  %43 = icmp ne i32 %42, 0
  br i1 %43, label %44, label %48

44:                                               ; preds = %40
  %45 = load i64, ptr %21, align 8, !tbaa !8
  %46 = icmp eq i64 %45, 0
  br i1 %46, label %47, label %48

47:                                               ; preds = %44
  store i32 0, ptr %12, align 4
  store i32 1, ptr %36, align 4
  br label %188

48:                                               ; preds = %44, %40
  %49 = load i8, ptr %17, align 1, !tbaa !10
  %50 = icmp ne i8 %49, 0
  br i1 %50, label %55, label %51

51:                                               ; preds = %48
  %52 = load i64, ptr %21, align 8, !tbaa !8
  %53 = icmp ugt i64 %52, 0
  br i1 %53, label %54, label %55

54:                                               ; preds = %51
  store i32 0, ptr %12, align 4
  store i32 1, ptr %36, align 4
  br label %188

55:                                               ; preds = %51, %48
  %56 = load ptr, ptr %15, align 8, !tbaa !3
  store ptr %56, ptr %26, align 8, !tbaa !3
  %57 = load ptr, ptr %15, align 8, !tbaa !3
  %58 = getelementptr inbounds i8, ptr %57, i64 32
  store ptr %58, ptr %27, align 8, !tbaa !3
  %59 = load ptr, ptr %27, align 8, !tbaa !3
  %60 = getelementptr inbounds i8, ptr %59, i64 31
  %61 = load i8, ptr %60, align 1, !tbaa !10
  %62 = zext i8 %61 to i32
  %63 = icmp sgt i32 %62, 16
  br i1 %63, label %64, label %65

64:                                               ; preds = %55
  store i32 0, ptr %12, align 4
  store i32 1, ptr %36, align 4
  br label %188

65:                                               ; preds = %55
  %66 = load ptr, ptr %27, align 8, !tbaa !3
  %67 = getelementptr inbounds i8, ptr %66, i64 31
  %68 = load i8, ptr %67, align 1, !tbaa !10
  %69 = zext i8 %68 to i32
  %70 = icmp eq i32 %69, 16
  br i1 %70, label %71, label %118

71:                                               ; preds = %65
  %72 = load ptr, ptr %27, align 8, !tbaa !3
  %73 = getelementptr inbounds i8, ptr %72, i64 16
  %74 = call i32 @memcmp(ptr noundef %73, ptr noundef @allzeroes, i64 noundef 15) #7
  %75 = icmp ne i32 %74, 0
  br i1 %75, label %76, label %77

76:                                               ; preds = %71
  store i32 0, ptr %12, align 4
  store i32 1, ptr %36, align 4
  br label %188

77:                                               ; preds = %71
  store i32 15, ptr %24, align 4, !tbaa !17
  br label %78

78:                                               ; preds = %110, %77
  %79 = load i32, ptr %24, align 4, !tbaa !17
  %80 = icmp sge i32 %79, 0
  br i1 %80, label %81, label %113

81:                                               ; preds = %78
  %82 = load ptr, ptr %27, align 8, !tbaa !3
  %83 = load i32, ptr %24, align 4, !tbaa !17
  %84 = sext i32 %83 to i64
  %85 = getelementptr inbounds i8, ptr %82, i64 %84
  %86 = load i8, ptr %85, align 1, !tbaa !10
  %87 = zext i8 %86 to i32
  %88 = load i32, ptr %24, align 4, !tbaa !17
  %89 = sext i32 %88 to i64
  %90 = getelementptr inbounds [16 x i8], ptr %35, i64 0, i64 %89
  %91 = load i8, ptr %90, align 1, !tbaa !10
  %92 = zext i8 %91 to i32
  %93 = icmp slt i32 %87, %92
  br i1 %93, label %94, label %95

94:                                               ; preds = %81
  br label %113

95:                                               ; preds = %81
  %96 = load ptr, ptr %27, align 8, !tbaa !3
  %97 = load i32, ptr %24, align 4, !tbaa !17
  %98 = sext i32 %97 to i64
  %99 = getelementptr inbounds i8, ptr %96, i64 %98
  %100 = load i8, ptr %99, align 1, !tbaa !10
  %101 = zext i8 %100 to i32
  %102 = load i32, ptr %24, align 4, !tbaa !17
  %103 = sext i32 %102 to i64
  %104 = getelementptr inbounds [16 x i8], ptr %35, i64 0, i64 %103
  %105 = load i8, ptr %104, align 1, !tbaa !10
  %106 = zext i8 %105 to i32
  %107 = icmp sgt i32 %101, %106
  br i1 %107, label %108, label %109

108:                                              ; preds = %95
  store i32 0, ptr %12, align 4
  store i32 1, ptr %36, align 4
  br label %188

109:                                              ; preds = %95
  br label %110

110:                                              ; preds = %109
  %111 = load i32, ptr %24, align 4, !tbaa !17
  %112 = add nsw i32 %111, -1
  store i32 %112, ptr %24, align 4, !tbaa !17
  br label %78, !llvm.loop !25

113:                                              ; preds = %94, %78
  %114 = load i32, ptr %24, align 4, !tbaa !17
  %115 = icmp slt i32 %114, 0
  br i1 %115, label %116, label %117

116:                                              ; preds = %113
  store i32 0, ptr %12, align 4
  store i32 1, ptr %36, align 4
  br label %188

117:                                              ; preds = %113
  br label %118

118:                                              ; preds = %117, %65
  %119 = load ptr, ptr %16, align 8, !tbaa !3
  %120 = call i32 @ge_frombytes_vartime(ptr noundef %25, ptr noundef %119)
  %121 = icmp ne i32 %120, 0
  br i1 %121, label %122, label %123

122:                                              ; preds = %118
  store i32 0, ptr %12, align 4
  store i32 1, ptr %36, align 4
  br label %188

123:                                              ; preds = %118
  %124 = getelementptr inbounds nuw %struct.ge_p3, ptr %25, i32 0, i32 0
  %125 = getelementptr inbounds [10 x i32], ptr %124, i64 0, i64 0
  %126 = getelementptr inbounds nuw %struct.ge_p3, ptr %25, i32 0, i32 0
  %127 = getelementptr inbounds [10 x i32], ptr %126, i64 0, i64 0
  call void @fe_neg(ptr noundef %125, ptr noundef %127)
  %128 = getelementptr inbounds nuw %struct.ge_p3, ptr %25, i32 0, i32 3
  %129 = getelementptr inbounds [10 x i32], ptr %128, i64 0, i64 0
  %130 = getelementptr inbounds nuw %struct.ge_p3, ptr %25, i32 0, i32 3
  %131 = getelementptr inbounds [10 x i32], ptr %130, i64 0, i64 0
  call void @fe_neg(ptr noundef %129, ptr noundef %131)
  %132 = load ptr, ptr %22, align 8, !tbaa !11
  %133 = load ptr, ptr %23, align 8, !tbaa !3
  %134 = call ptr @EVP_MD_fetch(ptr noundef %132, ptr noundef @.str, ptr noundef %133)
  store ptr %134, ptr %28, align 8, !tbaa !13
  %135 = load ptr, ptr %28, align 8, !tbaa !13
  %136 = icmp eq ptr %135, null
  br i1 %136, label %137, label %138

137:                                              ; preds = %123
  store i32 0, ptr %12, align 4
  store i32 1, ptr %36, align 4
  br label %188

138:                                              ; preds = %123
  %139 = call ptr @EVP_MD_CTX_new()
  store ptr %139, ptr %29, align 8, !tbaa !15
  %140 = load ptr, ptr %29, align 8, !tbaa !15
  %141 = icmp eq ptr %140, null
  br i1 %141, label %142, label %143

142:                                              ; preds = %138
  br label %184

143:                                              ; preds = %138
  %144 = load ptr, ptr %29, align 8, !tbaa !15
  %145 = load ptr, ptr %28, align 8, !tbaa !13
  %146 = load i8, ptr %17, align 1, !tbaa !10
  %147 = load i8, ptr %18, align 1, !tbaa !10
  %148 = load ptr, ptr %20, align 8, !tbaa !3
  %149 = load i64, ptr %21, align 8, !tbaa !8
  %150 = call i32 @hash_init_with_dom(ptr noundef %144, ptr noundef %145, i8 noundef zeroext %146, i8 noundef zeroext %147, ptr noundef %148, i64 noundef %149)
  %151 = icmp ne i32 %150, 0
  br i1 %151, label %152, label %173

152:                                              ; preds = %143
  %153 = load ptr, ptr %29, align 8, !tbaa !15
  %154 = load ptr, ptr %26, align 8, !tbaa !3
  %155 = call i32 @EVP_DigestUpdate(ptr noundef %153, ptr noundef %154, i64 noundef 32)
  %156 = icmp ne i32 %155, 0
  br i1 %156, label %157, label %173

157:                                              ; preds = %152
  %158 = load ptr, ptr %29, align 8, !tbaa !15
  %159 = load ptr, ptr %16, align 8, !tbaa !3
  %160 = call i32 @EVP_DigestUpdate(ptr noundef %158, ptr noundef %159, i64 noundef 32)
  %161 = icmp ne i32 %160, 0
  br i1 %161, label %162, label %173

162:                                              ; preds = %157
  %163 = load ptr, ptr %29, align 8, !tbaa !15
  %164 = load ptr, ptr %13, align 8, !tbaa !3
  %165 = load i64, ptr %14, align 8, !tbaa !8
  %166 = call i32 @EVP_DigestUpdate(ptr noundef %163, ptr noundef %164, i64 noundef %165)
  %167 = icmp ne i32 %166, 0
  br i1 %167, label %168, label %173

168:                                              ; preds = %162
  %169 = load ptr, ptr %29, align 8, !tbaa !15
  %170 = getelementptr inbounds [64 x i8], ptr %34, i64 0, i64 0
  %171 = call i32 @EVP_DigestFinal_ex(ptr noundef %169, ptr noundef %170, ptr noundef %30)
  %172 = icmp ne i32 %171, 0
  br i1 %172, label %174, label %173

173:                                              ; preds = %168, %162, %157, %152, %143
  br label %184

174:                                              ; preds = %168
  %175 = getelementptr inbounds [64 x i8], ptr %34, i64 0, i64 0
  call void @x25519_sc_reduce(ptr noundef %175)
  %176 = getelementptr inbounds [64 x i8], ptr %34, i64 0, i64 0
  %177 = load ptr, ptr %27, align 8, !tbaa !3
  call void @ge_double_scalarmult_vartime(ptr noundef %32, ptr noundef %176, ptr noundef %25, ptr noundef %177)
  %178 = getelementptr inbounds [32 x i8], ptr %33, i64 0, i64 0
  call void @ge_tobytes(ptr noundef %178, ptr noundef %32)
  %179 = getelementptr inbounds [32 x i8], ptr %33, i64 0, i64 0
  %180 = load ptr, ptr %26, align 8, !tbaa !3
  %181 = call i32 @CRYPTO_memcmp(ptr noundef %179, ptr noundef %180, i64 noundef 32)
  %182 = icmp eq i32 %181, 0
  %183 = zext i1 %182 to i32
  store i32 %183, ptr %31, align 4, !tbaa !17
  br label %184

184:                                              ; preds = %174, %173, %142
  %185 = load ptr, ptr %28, align 8, !tbaa !13
  call void @EVP_MD_free(ptr noundef %185)
  %186 = load ptr, ptr %29, align 8, !tbaa !15
  call void @EVP_MD_CTX_free(ptr noundef %186)
  %187 = load i32, ptr %31, align 4, !tbaa !17
  store i32 %187, ptr %12, align 4
  store i32 1, ptr %36, align 4
  br label %188

188:                                              ; preds = %184, %137, %122, %116, %108, %76, %64, %54, %47
  call void @llvm.lifetime.end.p0(i64 16, ptr %35) #6
  call void @llvm.lifetime.end.p0(i64 64, ptr %34) #6
  call void @llvm.lifetime.end.p0(i64 32, ptr %33) #6
  call void @llvm.lifetime.end.p0(i64 120, ptr %32) #6
  call void @llvm.lifetime.end.p0(i64 4, ptr %31) #6
  call void @llvm.lifetime.end.p0(i64 4, ptr %30) #6
  call void @llvm.lifetime.end.p0(i64 8, ptr %29) #6
  call void @llvm.lifetime.end.p0(i64 8, ptr %28) #6
  call void @llvm.lifetime.end.p0(i64 8, ptr %27) #6
  call void @llvm.lifetime.end.p0(i64 8, ptr %26) #6
  call void @llvm.lifetime.end.p0(i64 160, ptr %25) #6
  call void @llvm.lifetime.end.p0(i64 4, ptr %24) #6
  %189 = load i32, ptr %12, align 4
  ret i32 %189
}