; Function Attrs: nounwind uwtable
define range(i32 0, 2) i32 @ossl_ed25519_verify(ptr noundef %0, i64 noundef %1, ptr noundef %2, ptr noundef %3, i8 noundef zeroext %4, i8 noundef zeroext %5, i8 noundef zeroext %6, ptr noundef %7, i64 noundef %8, ptr noundef %9, ptr noundef %10) local_unnamed_addr #0 {
  %12 = alloca %struct.ge_p3, align 4
  %13 = alloca i32, align 4
  %14 = alloca %struct.ge_p2, align 4
  %15 = alloca [32 x i8], align 16
  %16 = alloca [64 x i8], align 16
  call void @llvm.lifetime.start.p0(i64 160, ptr nonnull %12) #9
  call void @llvm.lifetime.start.p0(i64 4, ptr nonnull %13) #9
  call void @llvm.lifetime.start.p0(i64 120, ptr nonnull %14) #9
  call void @llvm.lifetime.start.p0(i64 32, ptr nonnull %15) #9
  call void @llvm.lifetime.start.p0(i64 64, ptr nonnull %16) #9
  %17 = icmp eq ptr %7, null
  %spec.select = select i1 %17, i64 0, i64 %8
  %18 = icmp ne i8 %6, 0
  %19 = icmp eq i64 %spec.select, 0
  %or.cond = and i1 %18, %19
  br i1 %or.cond, label %.thread, label %20

20:                                               ; preds = %11
  %21 = icmp eq i8 %4, 0
  %22 = icmp ne i64 %spec.select, 0
  %or.cond3 = and i1 %21, %22
  br i1 %or.cond3, label %.thread, label %23

23:                                               ; preds = %20
  %24 = getelementptr inbounds nuw i8, ptr %2, i64 32
  %25 = getelementptr inbounds nuw i8, ptr %2, i64 63
  %26 = load i8, ptr %25, align 1, !tbaa !3
  %27 = icmp ugt i8 %26, 16
  br i1 %27, label %.thread, label %28

28:                                               ; preds = %23
  %29 = icmp eq i8 %26, 16
  br i1 %29, label %30, label %.loopexit

30:                                               ; preds = %28
  %31 = getelementptr inbounds nuw i8, ptr %2, i64 48
  %bcmp = tail call i32 @bcmp(ptr noundef nonnull dereferenceable(15) %31, ptr noundef nonnull dereferenceable(15) @allzeroes, i64 15)
  %.not = icmp eq i32 %bcmp, 0
  br i1 %.not, label %.preheader64, label %.thread

.preheader64:                                     ; preds = %30, %38
  %.04865 = phi i32 [ %40, %38 ], [ 15, %30 ]
  %32 = zext nneg i32 %.04865 to i64
  %33 = getelementptr inbounds nuw i8, ptr %24, i64 %32
  %34 = load i8, ptr %33, align 1, !tbaa !3
  %35 = getelementptr inbounds nuw [16 x i8], ptr @__const.ossl_ed25519_verify.l_low, i64 0, i64 %32
  %36 = load i8, ptr %35, align 1, !tbaa !3
  %37 = icmp ult i8 %34, %36
  br i1 %37, label %.loopexit, label %38

38:                                               ; preds = %.preheader64
  %39 = icmp ugt i8 %34, %36
  %40 = add nsw i32 %.04865, -1
  %.not66 = icmp eq i32 %.04865, 0
  %or.cond67 = or i1 %39, %.not66
  br i1 %or.cond67, label %.thread, label %.preheader64, !llvm.loop !23

.loopexit:                                        ; preds = %.preheader64, %28
  %41 = call fastcc i32 @ge_frombytes_vartime(ptr noundef %12, ptr noundef %3)
  %.not54 = icmp eq i32 %41, 0
  br i1 %.not54, label %.preheader, label %.thread

.preheader:                                       ; preds = %.loopexit, %.preheader
  %indvars.iv.i = phi i64 [ %indvars.iv.next.i, %.preheader ], [ 0, %.loopexit ]
  %42 = getelementptr inbounds nuw i32, ptr %12, i64 %indvars.iv.i
  %43 = load i32, ptr %42, align 4, !tbaa !9
  %44 = sub nsw i32 0, %43
  store i32 %44, ptr %42, align 4, !tbaa !9
  %indvars.iv.next.i = add nuw nsw i64 %indvars.iv.i, 1
  %exitcond.not.i = icmp eq i64 %indvars.iv.next.i, 10
  br i1 %exitcond.not.i, label %fe_neg.exit, label %.preheader, !llvm.loop !22

fe_neg.exit:                                      ; preds = %.preheader
  %45 = getelementptr inbounds nuw i8, ptr %12, i64 120
  br label %46

46:                                               ; preds = %46, %fe_neg.exit
  %indvars.iv.i60 = phi i64 [ 0, %fe_neg.exit ], [ %indvars.iv.next.i61, %46 ]
  %47 = getelementptr inbounds nuw i32, ptr %45, i64 %indvars.iv.i60
  %48 = load i32, ptr %47, align 4, !tbaa !9
  %49 = sub nsw i32 0, %48
  store i32 %49, ptr %47, align 4, !tbaa !9
  %indvars.iv.next.i61 = add nuw nsw i64 %indvars.iv.i60, 1
  %exitcond.not.i62 = icmp eq i64 %indvars.iv.next.i61, 10
  br i1 %exitcond.not.i62, label %fe_neg.exit63, label %46, !llvm.loop !22

fe_neg.exit63:                                    ; preds = %46
  %50 = tail call ptr @EVP_MD_fetch(ptr noundef %9, ptr noundef nonnull @.str, ptr noundef %10) #9
  %51 = icmp eq ptr %50, null
  br i1 %51, label %.thread, label %52

52:                                               ; preds = %fe_neg.exit63
  %53 = tail call ptr @EVP_MD_CTX_new() #9
  %54 = icmp eq ptr %53, null
  br i1 %54, label %69, label %55

55:                                               ; preds = %52
  %56 = tail call fastcc i32 @hash_init_with_dom(ptr noundef %53, ptr noundef %50, i8 noundef zeroext %4, i8 noundef zeroext %5, ptr noundef %7, i64 noundef %spec.select)
  %.not55 = icmp eq i32 %56, 0
  br i1 %.not55, label %69, label %57

57:                                               ; preds = %55
  %58 = tail call i32 @EVP_DigestUpdate(ptr noundef nonnull %53, ptr noundef %2, i64 noundef 32) #9
  %.not56 = icmp eq i32 %58, 0
  br i1 %.not56, label %69, label %59

59:                                               ; preds = %57
  %60 = tail call i32 @EVP_DigestUpdate(ptr noundef nonnull %53, ptr noundef %3, i64 noundef 32) #9
  %.not57 = icmp eq i32 %60, 0
  br i1 %.not57, label %69, label %61

61:                                               ; preds = %59
  %62 = tail call i32 @EVP_DigestUpdate(ptr noundef nonnull %53, ptr noundef %0, i64 noundef %1) #9
  %.not58 = icmp eq i32 %62, 0
  br i1 %.not58, label %69, label %63

63:                                               ; preds = %61
  %64 = call i32 @EVP_DigestFinal_ex(ptr noundef nonnull %53, ptr noundef nonnull %16, ptr noundef nonnull %13) #9
  %.not59 = icmp eq i32 %64, 0
  br i1 %.not59, label %69, label %65

65:                                               ; preds = %63
  call fastcc void @x25519_sc_reduce(ptr noundef %16)
  call fastcc void @ge_double_scalarmult_vartime(ptr noundef %14, ptr noundef %16, ptr noundef %12, ptr noundef nonnull %24)
  call fastcc void @ge_tobytes(ptr noundef %15, ptr noundef %14)
  %66 = call i32 @CRYPTO_memcmp(ptr noundef nonnull %15, ptr noundef %2, i64 noundef 32) #9
  %67 = icmp eq i32 %66, 0
  %68 = zext i1 %67 to i32
  br label %69

69:                                               ; preds = %55, %57, %59, %61, %63, %52, %65
  %.0 = phi i32 [ 0, %52 ], [ %68, %65 ], [ 0, %63 ], [ 0, %61 ], [ 0, %59 ], [ 0, %57 ], [ 0, %55 ]
  call void @EVP_MD_free(ptr noundef nonnull %50) #9
  call void @EVP_MD_CTX_free(ptr noundef %53) #9
  br label %.thread

.thread:                                          ; preds = %38, %fe_neg.exit63, %.loopexit, %30, %23, %20, %11, %69
  %.046 = phi i32 [ %.0, %69 ], [ 0, %11 ], [ 0, %20 ], [ 0, %23 ], [ 0, %30 ], [ 0, %.loopexit ], [ 0, %fe_neg.exit63 ], [ 0, %38 ]
  call void @llvm.lifetime.end.p0(i64 64, ptr nonnull %16) #9
  call void @llvm.lifetime.end.p0(i64 32, ptr nonnull %15) #9
  call void @llvm.lifetime.end.p0(i64 120, ptr nonnull %14) #9
  call void @llvm.lifetime.end.p0(i64 4, ptr nonnull %13) #9
  call void @llvm.lifetime.end.p0(i64 160, ptr nonnull %12) #9
  ret i32 %.046
}